target datalayout = "e-m:e-p270:32:32-p271:32:32-p272:64:64-i64:64-i128:128-f80:128-n8:16:32:64-S128"
target triple = "x86_64-unknown-linux-gnu"

%"class.re2::Regexp::Walker" = type { ptr, %"class.std::stack", i8, i32 }
%"class.std::stack" = type { %"class.std::deque" }
%"class.std::deque" = type { %"class.std::_Deque_base" }
%"class.std::_Deque_base" = type { %"struct.std::_Deque_base<re2::WalkState<int>, std::allocator<re2::WalkState<int>>>::_Deque_impl" }
%"struct.std::_Deque_base<re2::WalkState<int>, std::allocator<re2::WalkState<int>>>::_Deque_impl" = type { %"struct.std::_Deque_base<re2::WalkState<int>, std::allocator<re2::WalkState<int>>>::_Deque_impl_data" }
%"struct.std::_Deque_base<re2::WalkState<int>, std::allocator<re2::WalkState<int>>>::_Deque_impl_data" = type { ptr, i64, %"struct.std::_Deque_iterator", %"struct.std::_Deque_iterator" }
%"struct.std::_Deque_iterator" = type { ptr, ptr, ptr, ptr }
%"class.re2::NamedCapturesWalker" = type { %"class.re2::Regexp::Walker", ptr }

; Function Attrs: mustprogress nounwind uwtable
define linkonce_odr void @_ZNSt15__new_allocatorIN3re29WalkStateIiEEED2Ev(ptr noundef nonnull align 1 dereferenceable(1) %this) unnamed_addr #0 comdat align 2 {
entry:
  %this.addr = alloca ptr, align 8
  store ptr %this, ptr %this.addr, align 8
  ret void
}

; Function Attrs: mustprogress nounwind uwtable
define linkonce_odr void @_ZNSt15_Deque_iteratorIN3re29WalkStateIiEERS2_PS2_EC2Ev(ptr noundef nonnull align 8 dereferenceable(32) %this) unnamed_addr #0 comdat align 2 {
entry:
  %this.addr = alloca ptr, align 8
  store ptr %this, ptr %this.addr, align 8
  %this1 = load ptr, ptr %this.addr, align 8
  %_M_cur = getelementptr inbounds %"struct.std::_Deque_iterator", ptr %this1, i32 0, i32 0
  store ptr null, ptr %_M_cur, align 8
  %_M_first = getelementptr inbounds %"struct.std::_Deque_iterator", ptr %this1, i32 0, i32 1
  store ptr null, ptr %_M_first, align 8
  %_M_last = getelementptr inbounds %"struct.std::_Deque_iterator", ptr %this1, i32 0, i32 2
  store ptr null, ptr %_M_last, align 8
  %_M_node = getelementptr inbounds %"struct.std::_Deque_iterator", ptr %this1, i32 0, i32 3
  store ptr null, ptr %_M_node, align 8
  ret void
}

; Function Attrs: mustprogress nounwind uwtable
define linkonce_odr void @_ZNSt15__new_allocatorIN3re29WalkStateIiEEEC2Ev(ptr noundef nonnull align 1 dereferenceable(1) %this) unnamed_addr #0 comdat align 2 {
entry:
  %this.addr = alloca ptr, align 8
  store ptr %this, ptr %this.addr, align 8
  ret void
}

; Function Attrs: mustprogress nounwind uwtable
define linkonce_odr void @_ZNSaIN3re29WalkStateIiEEED2Ev(ptr noundef nonnull align 1 dereferenceable(1) %this) unnamed_addr #0 comdat align 2 {
entry:
  %this.addr = alloca ptr, align 8
  store ptr %this, ptr %this.addr, align 8
  %this1 = load ptr, ptr %this.addr, align 8
  call void @_ZNSt15__new_allocatorIN3re29WalkStateIiEEED2Ev(ptr noundef nonnull align 1 dereferenceable(1) %this1) #16
  ret void
}

; Function Attrs: mustprogress nounwind uwtable
define linkonce_odr void @_ZNSt11_Deque_baseIN3re29WalkStateIiEESaIS2_EE16_Deque_impl_dataC2Ev(ptr noundef nonnull align 8 dereferenceable(80) %this) unnamed_addr #0 comdat align 2 {
entry:
  %this.addr = alloca ptr, align 8
  store ptr %this, ptr %this.addr, align 8
  %this1 = load ptr, ptr %this.addr, align 8
  %_M_map = getelementptr inbounds %"struct.std::_Deque_base<re2::WalkState<int>, std::allocator<re2::WalkState<int>>>::_Deque_impl_data", ptr %this1, i32 0, i32 0
  store ptr null, ptr %_M_map, align 8
  %_M_map_size = getelementptr inbounds %"struct.std::_Deque_base<re2::WalkState<int>, std::allocator<re2::WalkState<int>>>::_Deque_impl_data", ptr %this1, i32 0, i32 1
  store i64 0, ptr %_M_map_size, align 8
  %_M_start = getelementptr inbounds %"struct.std::_Deque_base<re2::WalkState<int>, std::allocator<re2::WalkState<int>>>::_Deque_impl_data", ptr %this1, i32 0, i32 2
  call void @_ZNSt15_Deque_iteratorIN3re29WalkStateIiEERS2_PS2_EC2Ev(ptr noundef nonnull align 8 dereferenceable(32) %_M_start) #16
  %_M_finish = getelementptr inbounds %"struct.std::_Deque_base<re2::WalkState<int>, std::allocator<re2::WalkState<int>>>::_Deque_impl_data", ptr %this1, i32 0, i32 3
  call void @_ZNSt15_Deque_iteratorIN3re29WalkStateIiEERS2_PS2_EC2Ev(ptr noundef nonnull align 8 dereferenceable(32) %_M_finish) #16
  ret void
}

; Function Attrs: mustprogress nounwind uwtable
define linkonce_odr void @_ZNSaIN3re29WalkStateIiEEEC2Ev(ptr noundef nonnull align 1 dereferenceable(1) %this) unnamed_addr #0 comdat align 2 {
entry:
  %this.addr = alloca ptr, align 8
  store ptr %this, ptr %this.addr, align 8
  %this1 = load ptr, ptr %this.addr, align 8
  call void @_ZNSt15__new_allocatorIN3re29WalkStateIiEEEC2Ev(ptr noundef nonnull align 1 dereferenceable(1) %this1) #16
  ret void
}

; Function Attrs: mustprogress nounwind uwtable
define linkonce_odr void @_ZNSt11_Deque_baseIN3re29WalkStateIiEESaIS2_EE11_Deque_implD2Ev(ptr noundef nonnull align 8 dereferenceable(80) %this) unnamed_addr #0 comdat align 2 {
entry:
  %this.addr = alloca ptr, align 8
  store ptr %this, ptr %this.addr, align 8
  %this1 = load ptr, ptr %this.addr, align 8
  call void @_ZNSaIN3re29WalkStateIiEEED2Ev(ptr noundef nonnull align 1 dereferenceable(1) %this1) #16
  ret void
}

; Function Attrs: mustprogress nounwind uwtable
define linkonce_odr void @_ZNSt11_Deque_baseIN3re29WalkStateIiEESaIS2_EE11_Deque_implC2Ev(ptr noundef nonnull align 8 dereferenceable(80) %this) unnamed_addr #0 comdat align 2 {
entry:
  %this.addr = alloca ptr, align 8
  store ptr %this, ptr %this.addr, align 8
  %this1 = load ptr, ptr %this.addr, align 8
  call void @_ZNSaIN3re29WalkStateIiEEEC2Ev(ptr noundef nonnull align 1 dereferenceable(1) %this1) #16
  call void @_ZNSt11_Deque_baseIN3re29WalkStateIiEESaIS2_EE16_Deque_impl_dataC2Ev(ptr noundef nonnull align 8 dereferenceable(80) %this1) #16
  ret void
}

; Function Attrs: mustprogress uwtable
define linkonce_odr void @_ZNSt11_Deque_baseIN3re29WalkStateIiEESaIS2_EEC2Ev(ptr noundef nonnull align 8 dereferenceable(80) %this) unnamed_addr #3 comdat align 2 personality ptr @__gxx_personality_v0 {
entry:
  %this.addr = alloca ptr, align 8
  %exn.slot = alloca ptr, align 8
  %ehselector.slot = alloca i32, align 4
  store ptr %this, ptr %this.addr, align 8
  %this1 = load ptr, ptr %this.addr, align 8
  %_M_impl = getelementptr inbounds %"class.std::_Deque_base", ptr %this1, i32 0, i32 0
  call void @_ZNSt11_Deque_baseIN3re29WalkStateIiEESaIS2_EE11_Deque_implC2Ev(ptr noundef nonnull align 8 dereferenceable(80) %_M_impl) #16
  invoke void @_ZNSt11_Deque_baseIN3re29WalkStateIiEESaIS2_EE17_M_initialize_mapEm(ptr noundef nonnull align 8 dereferenceable(80) %this1, i64 noundef 0)
          to label %invoke.cont unwind label %lpad

invoke.cont:                                      ; preds = %entry
  ret void

lpad:                                             ; preds = %entry
  %0 = landingpad { ptr, i32 }
          cleanup
  %1 = extractvalue { ptr, i32 } %0, 0
  store ptr %1, ptr %exn.slot, align 8
  %2 = extractvalue { ptr, i32 } %0, 1
  store i32 %2, ptr %ehselector.slot, align 4
  call void @_ZNSt11_Deque_baseIN3re29WalkStateIiEESaIS2_EE11_Deque_implD2Ev(ptr noundef nonnull align 8 dereferenceable(80) %_M_impl) #16
  br label %eh.resume

eh.resume:                                        ; preds = %lpad
  %exn = load ptr, ptr %exn.slot, align 8
  %sel = load i32, ptr %ehselector.slot, align 4
  %lpad.val = insertvalue { ptr, i32 } poison, ptr %exn, 0
  %lpad.val2 = insertvalue { ptr, i32 } %lpad.val, i32 %sel, 1
  resume { ptr, i32 } %lpad.val2
}

; Function Attrs: mustprogress uwtable
define linkonce_odr void @_ZNSt5dequeIN3re29WalkStateIiEESaIS2_EEC2Ev(ptr noundef nonnull align 8 dereferenceable(80) %this) unnamed_addr #3 comdat align 2 {
entry:
  %this.addr = alloca ptr, align 8
  store ptr %this, ptr %this.addr, align 8
  %this1 = load ptr, ptr %this.addr, align 8
  call void @_ZNSt11_Deque_baseIN3re29WalkStateIiEESaIS2_EEC2Ev(ptr noundef nonnull align 8 dereferenceable(80) %this1)
  ret void
}

; Function Attrs: mustprogress uwtable
define linkonce_odr void @_ZNSt5stackIN3re29WalkStateIiEESt5dequeIS2_SaIS2_EEEC2IS5_vEEv(ptr noundef nonnull align 8 dereferenceable(80) %this) unnamed_addr #3 comdat align 2 {
entry:
  %this.addr = alloca ptr, align 8
  store ptr %this, ptr %this.addr, align 8
  %this1 = load ptr, ptr %this.addr, align 8
  %c = getelementptr inbounds %"class.std::stack", ptr %this1, i32 0, i32 0
  call void @llvm.memset.p0.i64(ptr align 8 %c, i8 0, i64 80, i1 false)
  call void @_ZNSt5dequeIN3re29WalkStateIiEESaIS2_EEC2Ev(ptr noundef nonnull align 8 dereferenceable(80) %c)
  ret void
}

; Function Attrs: mustprogress uwtable
define linkonce_odr void @_ZN3re26Regexp6WalkerIiEC2Ev(ptr noundef nonnull align 8 dereferenceable(96) %this) unnamed_addr #3 comdat align 2 {
entry:
  %this.addr = alloca ptr, align 8
  store ptr %this, ptr %this.addr, align 8
  %this1 = load ptr, ptr %this.addr, align 8
  store ptr getelementptr inbounds ({ [8 x ptr] }, ptr @_ZTVN3re26Regexp6WalkerIiEE, i32 0, i32 0, i32 2), ptr %this1, align 8
  %stack_ = getelementptr inbounds %"class.re2::Regexp::Walker", ptr %this1, i32 0, i32 1
  call void @_ZNSt5stackIN3re29WalkStateIiEESt5dequeIS2_SaIS2_EEEC2IS5_vEEv(ptr noundef nonnull align 8 dereferenceable(80) %stack_)
  %stopped_early_ = getelementptr inbounds %"class.re2::Regexp::Walker", ptr %this1, i32 0, i32 2
  store i8 0, ptr %stopped_early_, align 8
  ret void
}

; Function Attrs: mustprogress nounwind uwtable
define linkonce_odr noundef ptr @_ZN3re219NamedCapturesWalker7TakeMapB5cxx11Ev(ptr noundef nonnull align 8 dereferenceable(104) %this) #0 comdat align 2 {
entry:
  %this.addr = alloca ptr, align 8
  %m = alloca ptr, align 8
  store ptr %this, ptr %this.addr, align 8
  %this1 = load ptr, ptr %this.addr, align 8
  %map_ = getelementptr inbounds %"class.re2::NamedCapturesWalker", ptr %this1, i32 0, i32 1
  %0 = load ptr, ptr %map_, align 8
  store ptr %0, ptr %m, align 8
  %map_2 = getelementptr inbounds %"class.re2::NamedCapturesWalker", ptr %this1, i32 0, i32 1
  store ptr null, ptr %map_2, align 8
  %1 = load ptr, ptr %m, align 8
  ret ptr %1
}

; Function Attrs: mustprogress uwtable
define linkonce_odr noundef i32 @_ZN3re26Regexp6WalkerIiE4WalkEPS0_i(ptr noundef nonnull align 8 dereferenceable(96) %this, ptr noundef %re, i32 noundef %top_arg) #3 comdat align 2 {
entry:
  %this.addr = alloca ptr, align 8
  %re.addr = alloca ptr, align 8
  %top_arg.addr = alloca i32, align 4
  store ptr %this, ptr %this.addr, align 8
  store ptr %re, ptr %re.addr, align 8
  store i32 %top_arg, ptr %top_arg.addr, align 4
  %this1 = load ptr, ptr %this.addr, align 8
  %max_visits_ = getelementptr inbounds %"class.re2::Regexp::Walker", ptr %this1, i32 0, i32 3
  store i32 1000000, ptr %max_visits_, align 4
  %0 = load ptr, ptr %re.addr, align 8
  %1 = load i32, ptr %top_arg.addr, align 4
  %call = call noundef i32 @_ZN3re26Regexp6WalkerIiE12WalkInternalEPS0_ib(ptr noundef nonnull align 8 dereferenceable(96) %this1, ptr noundef %0, i32 noundef %1, i1 noundef zeroext true)
  ret i32 %call
}

; Function Attrs: mustprogress uwtable
define linkonce_odr void @_ZN3re219NamedCapturesWalkerC2Ev(ptr noundef nonnull align 8 dereferenceable(104) %this) unnamed_addr #3 comdat align 2 {
entry:
  %this.addr = alloca ptr, align 8
  store ptr %this, ptr %this.addr, align 8
  %this1 = load ptr, ptr %this.addr, align 8
  call void @_ZN3re26Regexp6WalkerIiEC2Ev(ptr noundef nonnull align 8 dereferenceable(96) %this1)
  store ptr getelementptr inbounds ({ [8 x ptr] }, ptr @_ZTVN3re219NamedCapturesWalkerE, i32 0, i32 0, i32 2), ptr %this1, align 8
  %map_ = getelementptr inbounds %"class.re2::NamedCapturesWalker", ptr %this1, i32 0, i32 1
  store ptr null, ptr %map_, align 8
  ret void
}

; Function Attrs: mustprogress uwtable
define noundef ptr @_ZN3re26Regexp13NamedCapturesB5cxx11Ev(ptr noundef nonnull align 8 dereferenceable(40) %this) #3 align 2 personality ptr @__gxx_personality_v0 {
entry:
  %this.addr = alloca ptr, align 8
  %w = alloca %"class.re2::NamedCapturesWalker", align 8
  %exn.slot = alloca ptr, align 8
  %ehselector.slot = alloca i32, align 4
  store ptr %this, ptr %this.addr, align 8
  %this1 = load ptr, ptr %this.addr, align 8
  call void @_ZN3re219NamedCapturesWalkerC2Ev(ptr noundef nonnull align 8 dereferenceable(104) %w)
  %call = invoke noundef i32 @_ZN3re26Regexp6WalkerIiE4WalkEPS0_i(ptr noundef nonnull align 8 dereferenceable(96) %w, ptr noundef %this1, i32 noundef 0)
          to label %invoke.cont unwind label %lpad

invoke.cont:                                      ; preds = %entry
  %call3 = invoke noundef ptr @_ZN3re219NamedCapturesWalker7TakeMapB5cxx11Ev(ptr noundef nonnull align 8 dereferenceable(104) %w)
          to label %invoke.cont2 unwind label %lpad

invoke.cont2:                                     ; preds = %invoke.cont
  call void @_ZN3re219NamedCapturesWalkerD2Ev(ptr noundef nonnull align 8 dereferenceable(104) %w) #16
  ret ptr %call3

lpad:                                             ; preds = %invoke.cont, %entry
  %0 = landingpad { ptr, i32 }
          cleanup
  %1 = extractvalue { ptr, i32 } %0, 0
  store ptr %1, ptr %exn.slot, align 8
  %2 = extractvalue { ptr, i32 } %0, 1
  store i32 %2, ptr %ehselector.slot, align 4
  call void @_ZN3re219NamedCapturesWalkerD2Ev(ptr noundef nonnull align 8 dereferenceable(104) %w) #16
  br label %eh.resume

eh.resume:                                        ; preds = %lpad
  %exn = load ptr, ptr %exn.slot, align 8
  %sel = load i32, ptr %ehselector.slot, align 4
  %lpad.val = insertvalue { ptr, i32 } poison, ptr %exn, 0
  %lpad.val4 = insertvalue { ptr, i32 } %lpad.val, i32 %sel, 1
  resume { ptr, i32 } %lpad.val4
}