; Function Attrs: mustprogress uwtable
define noundef ptr @_ZN3re26Regexp13NamedCapturesB5cxx11Ev(ptr noundef nonnull align 8 dereferenceable(40) %this) local_unnamed_addr #7 align 2 personality ptr @__gxx_personality_v0 {
entry:
  %w = alloca %"class.re2::NamedCapturesWalker", align 8
  store ptr getelementptr inbounds ({ [8 x ptr] }, ptr @_ZTVN3re26Regexp6WalkerIiEE, i64 0, i32 0, i64 2), ptr %w, align 8
  %stack_.i.i = getelementptr inbounds i8, ptr %w, i64 8
  call void @llvm.memset.p0.i64(ptr noundef nonnull align 8 dereferenceable(80) %stack_.i.i, i8 0, i64 80, i1 false)
  call void @_ZNSt11_Deque_baseIN3re29WalkStateIiEESaIS2_EE17_M_initialize_mapEm(ptr noundef nonnull align 8 dereferenceable(80) %stack_.i.i, i64 noundef 0)
  %stopped_early_.i.i = getelementptr inbounds i8, ptr %w, i64 88
  store i8 0, ptr %stopped_early_.i.i, align 8
  store ptr getelementptr inbounds ({ [8 x ptr] }, ptr @_ZTVN3re219NamedCapturesWalkerE, i64 0, i32 0, i64 2), ptr %w, align 8
  %map_.i = getelementptr inbounds i8, ptr %w, i64 96
  store ptr null, ptr %map_.i, align 8
  %max_visits_.i = getelementptr inbounds i8, ptr %w, i64 92
  store i32 1000000, ptr %max_visits_.i, align 4
  %call.i1 = invoke noundef i32 @_ZN3re26Regexp6WalkerIiE12WalkInternalEPS0_ib(ptr noundef nonnull align 8 dereferenceable(96) %w, ptr noundef nonnull %this, i32 noundef 0, i1 noundef zeroext true)
          to label %invoke.cont unwind label %lpad

invoke.cont:                                      ; preds = %entry
  %0 = load ptr, ptr %map_.i, align 8
  store ptr null, ptr %map_.i, align 8
  call void @_ZN3re219NamedCapturesWalkerD2Ev(ptr noundef nonnull align 8 dereferenceable(104) %w) #25
  ret ptr %0

lpad:                                             ; preds = %entry
  %1 = landingpad { ptr, i32 }
          cleanup
  call void @_ZN3re219NamedCapturesWalkerD2Ev(ptr noundef nonnull align 8 dereferenceable(104) %w) #25
  resume { ptr, i32 } %1
}